target datalayout = "e-m:e-p270:32:32-p271:32:32-p272:64:64-i64:64-i128:128-f80:128-n8:16:32:64-S128"
target triple = "x86_64-pc-linux-gnu"

%struct.tm = type { i32, i32, i32, i32, i32, i32, i32, i32, i32, i64, ptr }
%struct.luaL_Strbuf = type { ptr, ptr, ptr, ptr, [512 x i8] }

@.str.5 = private unnamed_addr constant [3 x i8] c"%c\00", align 1
@.str.6 = private unnamed_addr constant [3 x i8] c"*t\00", align 1
@.str.7 = private unnamed_addr constant [4 x i8] c"sec\00", align 1
@.str.8 = private unnamed_addr constant [4 x i8] c"min\00", align 1
@.str.9 = private unnamed_addr constant [5 x i8] c"hour\00", align 1
@.str.10 = private unnamed_addr constant [4 x i8] c"day\00", align 1
@.str.11 = private unnamed_addr constant [6 x i8] c"month\00", align 1
@.str.12 = private unnamed_addr constant [5 x i8] c"year\00", align 1
@.str.13 = private unnamed_addr constant [5 x i8] c"wday\00", align 1
@.str.14 = private unnamed_addr constant [5 x i8] c"yday\00", align 1
@.str.15 = private unnamed_addr constant [6 x i8] c"isdst\00", align 1
@.str.16 = private unnamed_addr constant [24 x i8] c"aAbBcdHIjmMpSUwWxXyYzZ%\00", align 1
@.str.17 = private unnamed_addr constant [29 x i8] c"invalid conversion specifier\00", align 1

; Function Attrs: mustprogress uwtable
define internal void @_ZL12setboolfieldP9lua_StatePKci(ptr noundef %0, ptr noundef %1, i32 noundef %2) #0 {
  %4 = alloca ptr, align 8
  %5 = alloca ptr, align 8
  %6 = alloca i32, align 4
  store ptr %0, ptr %4, align 8, !tbaa !4
  store ptr %1, ptr %5, align 8, !tbaa !9
  store i32 %2, ptr %6, align 4, !tbaa !33
  %7 = load i32, ptr %6, align 4, !tbaa !33
  %8 = icmp slt i32 %7, 0
  br i1 %8, label %9, label %10

9:                                                ; preds = %3
  br label %15

10:                                               ; preds = %3
  %11 = load ptr, ptr %4, align 8, !tbaa !4
  %12 = load i32, ptr %6, align 4, !tbaa !33
  call void @_Z15lua_pushbooleanP9lua_Statei(ptr noundef %11, i32 noundef %12)
  %13 = load ptr, ptr %4, align 8, !tbaa !4
  %14 = load ptr, ptr %5, align 8, !tbaa !9
  call void @_Z12lua_setfieldP9lua_StateiPKc(ptr noundef %13, i32 noundef -2, ptr noundef %14)
  br label %15

15:                                               ; preds = %10, %9
  ret void
}

; Function Attrs: mustprogress uwtable
define internal void @_ZL8setfieldP9lua_StatePKci(ptr noundef %0, ptr noundef %1, i32 noundef %2) #0 {
  %4 = alloca ptr, align 8
  %5 = alloca ptr, align 8
  %6 = alloca i32, align 4
  store ptr %0, ptr %4, align 8, !tbaa !4
  store ptr %1, ptr %5, align 8, !tbaa !9
  store i32 %2, ptr %6, align 4, !tbaa !33
  %7 = load ptr, ptr %4, align 8, !tbaa !4
  %8 = load i32, ptr %6, align 4, !tbaa !33
  call void @_Z15lua_pushintegerP9lua_Statei(ptr noundef %7, i32 noundef %8)
  %9 = load ptr, ptr %4, align 8, !tbaa !4
  %10 = load ptr, ptr %5, align 8, !tbaa !9
  call void @_Z12lua_setfieldP9lua_StateiPKc(ptr noundef %9, i32 noundef -2, ptr noundef %10)
  ret void
}

; Function Attrs: mustprogress uwtable
define internal noundef i32 @_ZL7os_dateP9lua_State(ptr noundef %0) #0 {
  %2 = alloca ptr, align 8
  %3 = alloca ptr, align 8
  %4 = alloca i64, align 8
  %5 = alloca %struct.tm, align 8
  %6 = alloca ptr, align 8
  %7 = alloca [3 x i8], align 1
  %8 = alloca %struct.luaL_Strbuf, align 8
  %9 = alloca i64, align 8
  %10 = alloca [200 x i8], align 16
  store ptr %0, ptr %2, align 8, !tbaa !4
  call void @llvm.lifetime.start.p0(i64 8, ptr %3) #8
  %11 = load ptr, ptr %2, align 8, !tbaa !4
  %12 = call noundef ptr @_Z15luaL_optlstringP9lua_StateiPKcPm(ptr noundef %11, i32 noundef 1, ptr noundef @.str.5, ptr noundef null)
  store ptr %12, ptr %3, align 8, !tbaa !9
  call void @llvm.lifetime.start.p0(i64 8, ptr %4) #8
  %13 = load ptr, ptr %2, align 8, !tbaa !4
  %14 = call noundef i32 @_Z8lua_typeP9lua_Statei(ptr noundef %13, i32 noundef 2)
  %15 = icmp sle i32 %14, 0
  br i1 %15, label %16, label %18

16:                                               ; preds = %1
  %17 = call i64 @time(ptr noundef null) #8
  br label %22

18:                                               ; preds = %1
  %19 = load ptr, ptr %2, align 8, !tbaa !4
  %20 = call noundef double @_Z16luaL_checknumberP9lua_Statei(ptr noundef %19, i32 noundef 2)
  %21 = fptosi double %20 to i64
  br label %22

22:                                               ; preds = %18, %16
  %23 = phi i64 [ %17, %16 ], [ %21, %18 ]
  store i64 %23, ptr %4, align 8, !tbaa !11
  call void @llvm.lifetime.start.p0(i64 56, ptr %5) #8
  call void @llvm.lifetime.start.p0(i64 8, ptr %6) #8
  %24 = load ptr, ptr %3, align 8, !tbaa !9
  %25 = load i8, ptr %24, align 1, !tbaa !13
  %26 = sext i8 %25 to i32
  %27 = icmp eq i32 %26, 33
  br i1 %27, label %28, label %32

28:                                               ; preds = %22
  %29 = call ptr @gmtime_r(ptr noundef %4, ptr noundef %5) #8
  store ptr %29, ptr %6, align 8, !tbaa !14
  %30 = load ptr, ptr %3, align 8, !tbaa !9
  %31 = getelementptr inbounds nuw i8, ptr %30, i32 1
  store ptr %31, ptr %3, align 8, !tbaa !9
  br label %40

32:                                               ; preds = %22
  %33 = load i64, ptr %4, align 8, !tbaa !11
  %34 = icmp slt i64 %33, 0
  br i1 %34, label %35, label %36

35:                                               ; preds = %32
  br label %38

36:                                               ; preds = %32
  %37 = call ptr @localtime_r(ptr noundef %4, ptr noundef %5) #8
  br label %38

38:                                               ; preds = %36, %35
  %39 = phi ptr [ null, %35 ], [ %37, %36 ]
  store ptr %39, ptr %6, align 8, !tbaa !14
  br label %40

40:                                               ; preds = %38, %28
  %41 = load ptr, ptr %6, align 8, !tbaa !14
  %42 = icmp eq ptr %41, null
  br i1 %42, label %43, label %45

43:                                               ; preds = %40
  %44 = load ptr, ptr %2, align 8, !tbaa !4
  call void @_Z11lua_pushnilP9lua_State(ptr noundef %44)
  br label %151

45:                                               ; preds = %40
  %46 = load ptr, ptr %3, align 8, !tbaa !9
  %47 = call i32 @strcmp(ptr noundef %46, ptr noundef @.str.6) #9
  %48 = icmp eq i32 %47, 0
  br i1 %48, label %49, label %91

49:                                               ; preds = %45
  %50 = load ptr, ptr %2, align 8, !tbaa !4
  call void @_Z15lua_createtableP9lua_Stateii(ptr noundef %50, i32 noundef 0, i32 noundef 9)
  %51 = load ptr, ptr %2, align 8, !tbaa !4
  %52 = load ptr, ptr %6, align 8, !tbaa !14
  %53 = getelementptr inbounds nuw %struct.tm, ptr %52, i32 0, i32 0
  %54 = load i32, ptr %53, align 8, !tbaa !16
  call void @_ZL8setfieldP9lua_StatePKci(ptr noundef %51, ptr noundef @.str.7, i32 noundef %54)
  %55 = load ptr, ptr %2, align 8, !tbaa !4
  %56 = load ptr, ptr %6, align 8, !tbaa !14
  %57 = getelementptr inbounds nuw %struct.tm, ptr %56, i32 0, i32 1
  %58 = load i32, ptr %57, align 4, !tbaa !19
  call void @_ZL8setfieldP9lua_StatePKci(ptr noundef %55, ptr noundef @.str.8, i32 noundef %58)
  %59 = load ptr, ptr %2, align 8, !tbaa !4
  %60 = load ptr, ptr %6, align 8, !tbaa !14
  %61 = getelementptr inbounds nuw %struct.tm, ptr %60, i32 0, i32 2
  %62 = load i32, ptr %61, align 8, !tbaa !20
  call void @_ZL8setfieldP9lua_StatePKci(ptr noundef %59, ptr noundef @.str.9, i32 noundef %62)
  %63 = load ptr, ptr %2, align 8, !tbaa !4
  %64 = load ptr, ptr %6, align 8, !tbaa !14
  %65 = getelementptr inbounds nuw %struct.tm, ptr %64, i32 0, i32 3
  %66 = load i32, ptr %65, align 4, !tbaa !21
  call void @_ZL8setfieldP9lua_StatePKci(ptr noundef %63, ptr noundef @.str.10, i32 noundef %66)
  %67 = load ptr, ptr %2, align 8, !tbaa !4
  %68 = load ptr, ptr %6, align 8, !tbaa !14
  %69 = getelementptr inbounds nuw %struct.tm, ptr %68, i32 0, i32 4
  %70 = load i32, ptr %69, align 8, !tbaa !22
  %71 = add nsw i32 %70, 1
  call void @_ZL8setfieldP9lua_StatePKci(ptr noundef %67, ptr noundef @.str.11, i32 noundef %71)
  %72 = load ptr, ptr %2, align 8, !tbaa !4
  %73 = load ptr, ptr %6, align 8, !tbaa !14
  %74 = getelementptr inbounds nuw %struct.tm, ptr %73, i32 0, i32 5
  %75 = load i32, ptr %74, align 4, !tbaa !23
  %76 = add nsw i32 %75, 1900
  call void @_ZL8setfieldP9lua_StatePKci(ptr noundef %72, ptr noundef @.str.12, i32 noundef %76)
  %77 = load ptr, ptr %2, align 8, !tbaa !4
  %78 = load ptr, ptr %6, align 8, !tbaa !14
  %79 = getelementptr inbounds nuw %struct.tm, ptr %78, i32 0, i32 6
  %80 = load i32, ptr %79, align 8, !tbaa !24
  %81 = add nsw i32 %80, 1
  call void @_ZL8setfieldP9lua_StatePKci(ptr noundef %77, ptr noundef @.str.13, i32 noundef %81)
  %82 = load ptr, ptr %2, align 8, !tbaa !4
  %83 = load ptr, ptr %6, align 8, !tbaa !14
  %84 = getelementptr inbounds nuw %struct.tm, ptr %83, i32 0, i32 7
  %85 = load i32, ptr %84, align 4, !tbaa !25
  %86 = add nsw i32 %85, 1
  call void @_ZL8setfieldP9lua_StatePKci(ptr noundef %82, ptr noundef @.str.14, i32 noundef %86)
  %87 = load ptr, ptr %2, align 8, !tbaa !4
  %88 = load ptr, ptr %6, align 8, !tbaa !14
  %89 = getelementptr inbounds nuw %struct.tm, ptr %88, i32 0, i32 8
  %90 = load i32, ptr %89, align 8, !tbaa !26
  call void @_ZL12setboolfieldP9lua_StatePKci(ptr noundef %87, ptr noundef @.str.15, i32 noundef %90)
  br label %150

91:                                               ; preds = %45
  call void @llvm.lifetime.start.p0(i64 3, ptr %7) #8
  %92 = getelementptr inbounds [3 x i8], ptr %7, i64 0, i64 0
  store i8 37, ptr %92, align 1, !tbaa !13
  %93 = getelementptr inbounds [3 x i8], ptr %7, i64 0, i64 2
  store i8 0, ptr %93, align 1, !tbaa !13
  call void @llvm.lifetime.start.p0(i64 544, ptr %8) #8
  %94 = load ptr, ptr %2, align 8, !tbaa !4
  call void @_Z13luaL_buffinitP9lua_StateP11luaL_Strbuf(ptr noundef %94, ptr noundef %8)
  br label %95

95:                                               ; preds = %146, %91
  %96 = load ptr, ptr %3, align 8, !tbaa !9
  %97 = load i8, ptr %96, align 1, !tbaa !13
  %98 = icmp ne i8 %97, 0
  br i1 %98, label %99, label %149

99:                                               ; preds = %95
  %100 = load ptr, ptr %3, align 8, !tbaa !9
  %101 = load i8, ptr %100, align 1, !tbaa !13
  %102 = sext i8 %101 to i32
  %103 = icmp ne i32 %102, 37
  br i1 %103, label %110, label %104

104:                                              ; preds = %99
  %105 = load ptr, ptr %3, align 8, !tbaa !9
  %106 = getelementptr inbounds i8, ptr %105, i64 1
  %107 = load i8, ptr %106, align 1, !tbaa !13
  %108 = sext i8 %107 to i32
  %109 = icmp eq i32 %108, 0
  br i1 %109, label %110, label %124

110:                                              ; preds = %104, %99
  %111 = getelementptr inbounds nuw %struct.luaL_Strbuf, ptr %8, i32 0, i32 0
  %112 = load ptr, ptr %111, align 8, !tbaa !27
  %113 = getelementptr inbounds nuw %struct.luaL_Strbuf, ptr %8, i32 0, i32 1
  %114 = load ptr, ptr %113, align 8, !tbaa !30
  %115 = icmp ult ptr %112, %114
  br i1 %115, label %118, label %116

116:                                              ; preds = %110
  %117 = call noundef ptr @_Z17luaL_prepbuffsizeP11luaL_Strbufm(ptr noundef %8, i64 noundef 1)
  br label %118

118:                                              ; preds = %116, %110
  %119 = load ptr, ptr %3, align 8, !tbaa !9
  %120 = load i8, ptr %119, align 1, !tbaa !13
  %121 = getelementptr inbounds nuw %struct.luaL_Strbuf, ptr %8, i32 0, i32 0
  %122 = load ptr, ptr %121, align 8, !tbaa !27
  %123 = getelementptr inbounds nuw i8, ptr %122, i32 1
  store ptr %123, ptr %121, align 8, !tbaa !27
  store i8 %120, ptr %122, align 1, !tbaa !13
  br label %145

124:                                              ; preds = %104
  %125 = load ptr, ptr %3, align 8, !tbaa !9
  %126 = getelementptr inbounds i8, ptr %125, i64 1
  %127 = load i8, ptr %126, align 1, !tbaa !13
  %128 = sext i8 %127 to i32
  %129 = call noundef ptr @strchr(ptr noundef @.str.16, i32 noundef %128) #9
  %130 = icmp eq ptr %129, null
  br i1 %130, label %131, label %133

131:                                              ; preds = %124
  %132 = load ptr, ptr %2, align 8, !tbaa !4
  call void @_Z14luaL_argerrorLP9lua_StateiPKc(ptr noundef %132, i32 noundef 1, ptr noundef @.str.17) #10
  unreachable

133:                                              ; preds = %124
  call void @llvm.lifetime.start.p0(i64 8, ptr %9) #8
  call void @llvm.lifetime.start.p0(i64 200, ptr %10) #8
  %134 = load ptr, ptr %3, align 8, !tbaa !9
  %135 = getelementptr inbounds nuw i8, ptr %134, i32 1
  store ptr %135, ptr %3, align 8, !tbaa !9
  %136 = load i8, ptr %135, align 1, !tbaa !13
  %137 = getelementptr inbounds [3 x i8], ptr %7, i64 0, i64 1
  store i8 %136, ptr %137, align 1, !tbaa !13
  %138 = getelementptr inbounds [200 x i8], ptr %10, i64 0, i64 0
  %139 = getelementptr inbounds [3 x i8], ptr %7, i64 0, i64 0
  %140 = load ptr, ptr %6, align 8, !tbaa !14
  %141 = call i64 @strftime(ptr noundef %138, i64 noundef 200, ptr noundef %139, ptr noundef %140) #8
  store i64 %141, ptr %9, align 8, !tbaa !11
  %142 = getelementptr inbounds [200 x i8], ptr %10, i64 0, i64 0
  %143 = load i64, ptr %9, align 8, !tbaa !11
  call void @_Z15luaL_addlstringP11luaL_StrbufPKcm(ptr noundef %8, ptr noundef %142, i64 noundef %143)
  call void @llvm.lifetime.end.p0(i64 200, ptr %10) #8
  call void @llvm.lifetime.end.p0(i64 8, ptr %9) #8
  br label %144

144:                                              ; preds = %133
  br label %145

145:                                              ; preds = %144, %118
  br label %146

146:                                              ; preds = %145
  %147 = load ptr, ptr %3, align 8, !tbaa !9
  %148 = getelementptr inbounds nuw i8, ptr %147, i32 1
  store ptr %148, ptr %3, align 8, !tbaa !9
  br label %95, !llvm.loop !31

149:                                              ; preds = %95
  call void @_Z15luaL_pushresultP11luaL_Strbuf(ptr noundef %8)
  call void @llvm.lifetime.end.p0(i64 544, ptr %8) #8
  call void @llvm.lifetime.end.p0(i64 3, ptr %7) #8
  br label %150

150:                                              ; preds = %149, %49
  br label %151

151:                                              ; preds = %150, %43
  call void @llvm.lifetime.end.p0(i64 8, ptr %6) #8
  call void @llvm.lifetime.end.p0(i64 56, ptr %5) #8
  call void @llvm.lifetime.end.p0(i64 8, ptr %4) #8
  call void @llvm.lifetime.end.p0(i64 8, ptr %3) #8
  ret i32 1
}