; Function Attrs: mustprogress uwtable
define internal noundef i32 @_ZL7os_dateP9lua_State(ptr noundef %0) #0 {
  %2 = alloca i64, align 8
  %3 = alloca %struct.tm, align 8
  %4 = alloca [3 x i8], align 1
  %5 = alloca %struct.luaL_Strbuf, align 8
  %6 = alloca [200 x i8], align 16
  %7 = tail call noundef ptr @_Z15luaL_optlstringP9lua_StateiPKcPm(ptr noundef %0, i32 noundef 1, ptr noundef nonnull @.str.5, ptr noundef null)
  call void @llvm.lifetime.start.p0(i64 8, ptr nonnull %2) #8
  %8 = tail call noundef i32 @_Z8lua_typeP9lua_Statei(ptr noundef %0, i32 noundef 2)
  %9 = icmp slt i32 %8, 1
  br i1 %9, label %10, label %12

10:                                               ; preds = %1
  %11 = tail call i64 @time(ptr noundef null) #8
  br label %15

12:                                               ; preds = %1
  %13 = tail call noundef double @_Z16luaL_checknumberP9lua_Statei(ptr noundef %0, i32 noundef 2)
  %14 = fptosi double %13 to i64
  br label %15

15:                                               ; preds = %12, %10
  %16 = phi i64 [ %11, %10 ], [ %14, %12 ]
  store i64 %16, ptr %2, align 8, !tbaa !4
  call void @llvm.lifetime.start.p0(i64 56, ptr nonnull %3) #8
  %17 = load i8, ptr %7, align 1, !tbaa !8
  %18 = icmp eq i8 %17, 33
  br i1 %18, label %19, label %22

19:                                               ; preds = %15
  %20 = call ptr @gmtime_r(ptr noundef nonnull %2, ptr noundef nonnull %3) #8
  %21 = getelementptr inbounds nuw i8, ptr %7, i64 1
  br label %26

22:                                               ; preds = %15
  %23 = icmp slt i64 %16, 0
  br i1 %23, label %.thread, label %24

24:                                               ; preds = %22
  %25 = call ptr @localtime_r(ptr noundef nonnull %2, ptr noundef nonnull %3) #8
  br label %26

26:                                               ; preds = %24, %19
  %.037 = phi ptr [ %20, %19 ], [ %25, %24 ]
  %.0 = phi ptr [ %21, %19 ], [ %7, %24 ]
  %27 = icmp eq ptr %.037, null
  br i1 %27, label %.thread, label %sub_0

.thread:                                          ; preds = %22, %26
  call void @_Z11lua_pushnilP9lua_State(ptr noundef %0)
  br label %_ZL12setboolfieldP9lua_StatePKci.exit

sub_0:                                            ; preds = %26
  %28 = load i8, ptr %.0, align 1
  %.not = icmp eq i8 %28, 42
  br i1 %.not, label %sub_1, label %.tail.thread

sub_1:                                            ; preds = %sub_0
  %29 = getelementptr inbounds nuw i8, ptr %.0, i64 1
  %30 = load i8, ptr %29, align 1
  %.not43 = icmp eq i8 %30, 116
  br i1 %.not43, label %.tail, label %.tail.thread

.tail:                                            ; preds = %sub_1
  %31 = getelementptr inbounds nuw i8, ptr %.0, i64 2
  %32 = load i8, ptr %31, align 1
  %33 = icmp eq i8 %32, 0
  br i1 %33, label %34, label %.tail.thread

34:                                               ; preds = %.tail
  call void @_Z15lua_createtableP9lua_Stateii(ptr noundef %0, i32 noundef 0, i32 noundef 9)
  %35 = load i32, ptr %.037, align 8, !tbaa !9
  call void @_Z15lua_pushintegerP9lua_Statei(ptr noundef %0, i32 noundef %35)
  call void @_Z12lua_setfieldP9lua_StateiPKc(ptr noundef %0, i32 noundef -2, ptr noundef nonnull @.str.7)
  %36 = getelementptr inbounds nuw i8, ptr %.037, i64 4
  %37 = load i32, ptr %36, align 4, !tbaa !14
  call void @_Z15lua_pushintegerP9lua_Statei(ptr noundef %0, i32 noundef %37)
  call void @_Z12lua_setfieldP9lua_StateiPKc(ptr noundef %0, i32 noundef -2, ptr noundef nonnull @.str.8)
  %38 = getelementptr inbounds nuw i8, ptr %.037, i64 8
  %39 = load i32, ptr %38, align 8, !tbaa !15
  call void @_Z15lua_pushintegerP9lua_Statei(ptr noundef %0, i32 noundef %39)
  call void @_Z12lua_setfieldP9lua_StateiPKc(ptr noundef %0, i32 noundef -2, ptr noundef nonnull @.str.9)
  %40 = getelementptr inbounds nuw i8, ptr %.037, i64 12
  %41 = load i32, ptr %40, align 4, !tbaa !16
  call void @_Z15lua_pushintegerP9lua_Statei(ptr noundef %0, i32 noundef %41)
  call void @_Z12lua_setfieldP9lua_StateiPKc(ptr noundef %0, i32 noundef -2, ptr noundef nonnull @.str.10)
  %42 = getelementptr inbounds nuw i8, ptr %.037, i64 16
  %43 = load i32, ptr %42, align 8, !tbaa !17
  %44 = add nsw i32 %43, 1
  call void @_Z15lua_pushintegerP9lua_Statei(ptr noundef %0, i32 noundef %44)
  call void @_Z12lua_setfieldP9lua_StateiPKc(ptr noundef %0, i32 noundef -2, ptr noundef nonnull @.str.11)
  %45 = getelementptr inbounds nuw i8, ptr %.037, i64 20
  %46 = load i32, ptr %45, align 4, !tbaa !18
  %47 = add nsw i32 %46, 1900
  call void @_Z15lua_pushintegerP9lua_Statei(ptr noundef %0, i32 noundef %47)
  call void @_Z12lua_setfieldP9lua_StateiPKc(ptr noundef %0, i32 noundef -2, ptr noundef nonnull @.str.12)
  %48 = getelementptr inbounds nuw i8, ptr %.037, i64 24
  %49 = load i32, ptr %48, align 8, !tbaa !19
  %50 = add nsw i32 %49, 1
  call void @_Z15lua_pushintegerP9lua_Statei(ptr noundef %0, i32 noundef %50)
  call void @_Z12lua_setfieldP9lua_StateiPKc(ptr noundef %0, i32 noundef -2, ptr noundef nonnull @.str.13)
  %51 = getelementptr inbounds nuw i8, ptr %.037, i64 28
  %52 = load i32, ptr %51, align 4, !tbaa !20
  %53 = add nsw i32 %52, 1
  call void @_Z15lua_pushintegerP9lua_Statei(ptr noundef %0, i32 noundef %53)
  call void @_Z12lua_setfieldP9lua_StateiPKc(ptr noundef %0, i32 noundef -2, ptr noundef nonnull @.str.14)
  %54 = getelementptr inbounds nuw i8, ptr %.037, i64 32
  %55 = load i32, ptr %54, align 8, !tbaa !21
  %56 = icmp slt i32 %55, 0
  br i1 %56, label %_ZL12setboolfieldP9lua_StatePKci.exit, label %57

57:                                               ; preds = %34
  call void @_Z15lua_pushbooleanP9lua_Statei(ptr noundef %0, i32 noundef %55)
  call void @_Z12lua_setfieldP9lua_StateiPKc(ptr noundef %0, i32 noundef -2, ptr noundef nonnull @.str.15)
  br label %_ZL12setboolfieldP9lua_StatePKci.exit

.tail.thread:                                     ; preds = %sub_1, %sub_0, %.tail
  call void @llvm.lifetime.start.p0(i64 3, ptr nonnull %4) #8
  store i8 37, ptr %4, align 1, !tbaa !8
  %58 = getelementptr inbounds nuw i8, ptr %4, i64 2
  store i8 0, ptr %58, align 1, !tbaa !8
  call void @llvm.lifetime.start.p0(i64 544, ptr nonnull %5) #8
  call void @_Z13luaL_buffinitP9lua_StateP11luaL_Strbuf(ptr noundef %0, ptr noundef nonnull %5)
  %59 = getelementptr inbounds nuw i8, ptr %4, i64 1
  %60 = getelementptr inbounds nuw i8, ptr %5, i64 8
  br label %61

61:                                               ; preds = %83, %.tail.thread
  %.1 = phi ptr [ %.0, %.tail.thread ], [ %84, %83 ]
  %62 = load i8, ptr %.1, align 1, !tbaa !8
  switch i8 %62, label %67 [
    i8 0, label %85
    i8 37, label %63
  ]

63:                                               ; preds = %61
  %64 = getelementptr inbounds nuw i8, ptr %.1, i64 1
  %65 = load i8, ptr %64, align 1, !tbaa !8
  %66 = icmp eq i8 %65, 0
  br i1 %66, label %67, label %77

67:                                               ; preds = %61, %63
  %68 = load ptr, ptr %5, align 8, !tbaa !22
  %69 = load ptr, ptr %60, align 8, !tbaa !26
  %70 = icmp ult ptr %68, %69
  br i1 %70, label %73, label %71

71:                                               ; preds = %67
  %72 = call noundef ptr @_Z17luaL_prepbuffsizeP11luaL_Strbufm(ptr noundef nonnull %5, i64 noundef 1)
  %.pre = load i8, ptr %.1, align 1, !tbaa !8
  %.pre44 = load ptr, ptr %5, align 8, !tbaa !22
  br label %73

73:                                               ; preds = %71, %67
  %74 = phi ptr [ %.pre44, %71 ], [ %68, %67 ]
  %75 = phi i8 [ %.pre, %71 ], [ %62, %67 ]
  %76 = getelementptr inbounds nuw i8, ptr %74, i64 1
  store ptr %76, ptr %5, align 8, !tbaa !22
  store i8 %75, ptr %74, align 1, !tbaa !8
  br label %83

77:                                               ; preds = %63
  %78 = sext i8 %65 to i32
  %memchr = call ptr @memchr(ptr noundef nonnull dereferenceable(1) @.str.16, i32 %78, i64 24)
  %79 = icmp eq ptr %memchr, null
  br i1 %79, label %80, label %81

80:                                               ; preds = %77
  call void @_Z14luaL_argerrorLP9lua_StateiPKc(ptr noundef %0, i32 noundef 1, ptr noundef nonnull @.str.17) #9
  unreachable

81:                                               ; preds = %77
  call void @llvm.lifetime.start.p0(i64 200, ptr nonnull %6) #8
  store i8 %65, ptr %59, align 1, !tbaa !8
  %82 = call i64 @strftime(ptr noundef nonnull %6, i64 noundef 200, ptr noundef nonnull %4, ptr noundef nonnull %.037) #8
  call void @_Z15luaL_addlstringP11luaL_StrbufPKcm(ptr noundef nonnull %5, ptr noundef nonnull %6, i64 noundef %82)
  call void @llvm.lifetime.end.p0(i64 200, ptr nonnull %6) #8
  br label %83

83:                                               ; preds = %73, %81
  %.2 = phi ptr [ %.1, %73 ], [ %64, %81 ]
  %84 = getelementptr inbounds nuw i8, ptr %.2, i64 1
  br label %61, !llvm.loop !27

85:                                               ; preds = %61
  call void @_Z15luaL_pushresultP11luaL_Strbuf(ptr noundef nonnull %5)
  call void @llvm.lifetime.end.p0(i64 544, ptr nonnull %5) #8
  call void @llvm.lifetime.end.p0(i64 3, ptr nonnull %4) #8
  br label %_ZL12setboolfieldP9lua_StatePKci.exit

_ZL12setboolfieldP9lua_StatePKci.exit:            ; preds = %57, %34, %85, %.thread
  call void @llvm.lifetime.end.p0(i64 56, ptr nonnull %3) #8
  call void @llvm.lifetime.end.p0(i64 8, ptr nonnull %2) #8
  ret i32 1
}